target datalayout = "e-m:e-p270:32:32-p271:32:32-p272:64:64-i64:64-i128:128-f80:128-n8:16:32:64-S128"
target triple = "x86_64-pc-linux-gnu"

%struct.AVFilterContext = type { ptr, ptr, ptr, ptr, ptr, i32, ptr, ptr, i32, ptr, ptr, i32, i32, ptr, ptr, ptr, ptr, i32, ptr, i32, i32 }
%struct.LutContext = type { ptr, [4 x [65536 x i16]], [4 x ptr], [4 x ptr], i32, i32, [7 x double], i32, i32, i32, i32, i32 }

@rgb_pix_fmts = internal constant [19 x i32] [i32 25, i32 26, i32 27, i32 28, i32 2, i32 3, i32 35, i32 105, i32 71, i32 111, i32 73, i32 75, i32 163, i32 135, i32 137, i32 77, i32 161, i32 113, i32 -1], align 16

; Function Attrs: nounwind uwtable
define internal i32 @query_formats(ptr noundef %0, ptr noundef %1, ptr noundef %2) #1 {
  %4 = alloca ptr, align 8
  %5 = alloca ptr, align 8
  %6 = alloca ptr, align 8
  %7 = alloca ptr, align 8
  %8 = alloca ptr, align 8
  store ptr %0, ptr %4, align 8, !tbaa !4
  store ptr %1, ptr %5, align 8, !tbaa !29
  store ptr %2, ptr %6, align 8, !tbaa !29
  call void @llvm.lifetime.start.p0(i64 8, ptr %7) #8
  %9 = load ptr, ptr %4, align 8, !tbaa !4
  %10 = getelementptr inbounds nuw %struct.AVFilterContext, ptr %9, i32 0, i32 9
  %11 = load ptr, ptr %10, align 8, !tbaa !9
  store ptr %11, ptr %7, align 8, !tbaa !22
  call void @llvm.lifetime.start.p0(i64 8, ptr %8) #8
  %12 = load ptr, ptr %7, align 8, !tbaa !22
  %13 = getelementptr inbounds nuw %struct.LutContext, ptr %12, i32 0, i32 7
  %14 = load i32, ptr %13, align 8, !tbaa !31
  %15 = icmp ne i32 %14, 0
  br i1 %15, label %16, label %17

16:                                               ; preds = %3
  br label %23

17:                                               ; preds = %3
  %18 = load ptr, ptr %7, align 8, !tbaa !22
  %19 = getelementptr inbounds nuw %struct.LutContext, ptr %18, i32 0, i32 8
  %20 = load i32, ptr %19, align 4, !tbaa !33
  %21 = icmp ne i32 %20, 0
  %22 = select i1 %21, ptr @yuv_pix_fmts, ptr @all_pix_fmts
  br label %23

23:                                               ; preds = %17, %16
  %24 = phi ptr [ @rgb_pix_fmts, %16 ], [ %22, %17 ]
  store ptr %24, ptr %8, align 8, !tbaa !34
  %25 = load ptr, ptr %4, align 8, !tbaa !4
  %26 = load ptr, ptr %5, align 8, !tbaa !29
  %27 = load ptr, ptr %6, align 8, !tbaa !29
  %28 = load ptr, ptr %8, align 8, !tbaa !34
  %29 = call i32 @ff_set_common_formats_from_list2(ptr noundef %25, ptr noundef %26, ptr noundef %27, ptr noundef %28)
  call void @llvm.lifetime.end.p0(i64 8, ptr %8) #8
  call void @llvm.lifetime.end.p0(i64 8, ptr %7) #8
  ret i32 %29
}