; Function Attrs: nounwind uwtable
define internal i32 @query_formats(ptr noundef %0, ptr noundef %1, ptr noundef %2) #1 {
  %4 = getelementptr inbounds nuw i8, ptr %0, i64 72
  %5 = load ptr, ptr %4, align 8, !tbaa !4
  %6 = getelementptr inbounds nuw i8, ptr %5, i64 524424
  %7 = load i32, ptr %6, align 8, !tbaa !24
  %.not = icmp eq i32 %7, 0
  br i1 %.not, label %8, label %12

8:                                                ; preds = %3
  %9 = getelementptr inbounds nuw i8, ptr %5, i64 524428
  %10 = load i32, ptr %9, align 4, !tbaa !26
  %.not7 = icmp eq i32 %10, 0
  %11 = select i1 %.not7, ptr @all_pix_fmts, ptr @yuv_pix_fmts
  br label %12

12:                                               ; preds = %3, %8
  %13 = phi ptr [ %11, %8 ], [ @rgb_pix_fmts, %3 ]
  %14 = tail call i32 @ff_set_common_formats_from_list2(ptr noundef nonnull %0, ptr noundef %1, ptr noundef %2, ptr noundef nonnull %13) #11
  ret i32 %14
}